target datalayout = "e-m:e-p270:32:32-p271:32:32-p272:64:64-i64:64-i128:128-f80:128-n8:16:32:64-S128"
target triple = "x86_64-pc-linux-gnu"

%struct.pmix_tma = type { ptr, ptr, ptr, ptr, ptr, ptr, ptr, ptr }
%struct.pmix_proc = type { [256 x i8], i32 }
%struct.pmix_proc_info = type { %struct.pmix_proc, ptr, ptr, i32, i32, i8 }

; Function Attrs: inlinehint nounwind uwtable
define internal void @pmix_bfrops_base_tma_proc_info_construct(ptr noundef %0, ptr noundef %1) #3 {
  %3 = alloca ptr, align 8
  %4 = alloca ptr, align 8
  store ptr %0, ptr %3, align 8, !tbaa !109
  store ptr %1, ptr %4, align 8, !tbaa !23
  %5 = load ptr, ptr %3, align 8, !tbaa !109
  call void @llvm.memset.p0.i64(ptr align 8 %5, i8 0, i64 296, i1 false)
  %6 = load ptr, ptr %3, align 8, !tbaa !109
  %7 = getelementptr inbounds nuw %struct.pmix_proc_info, ptr %6, i32 0, i32 5
  store i8 0, ptr %7, align 8, !tbaa !135
  ret void
}

; Function Attrs: inlinehint nounwind uwtable
define internal ptr @pmix_tma_malloc(ptr noundef %0, i64 noundef %1) #3 {
  %3 = alloca ptr, align 8
  %4 = alloca ptr, align 8
  %5 = alloca i64, align 8
  store ptr %0, ptr %4, align 8, !tbaa !23
  store i64 %1, ptr %5, align 8, !tbaa !25
  %6 = load ptr, ptr %4, align 8, !tbaa !23
  %7 = icmp ne ptr null, %6
  br i1 %7, label %8, label %15

8:                                                ; preds = %2
  %9 = load ptr, ptr %4, align 8, !tbaa !23
  %10 = getelementptr inbounds nuw %struct.pmix_tma, ptr %9, i32 0, i32 0
  %11 = load ptr, ptr %10, align 8, !tbaa !235
  %12 = load ptr, ptr %4, align 8, !tbaa !23
  %13 = load i64, ptr %5, align 8, !tbaa !25
  %14 = call ptr %11(ptr noundef %12, i64 noundef %13)
  store ptr %14, ptr %3, align 8
  br label %18

15:                                               ; preds = %2
  %16 = load i64, ptr %5, align 8, !tbaa !25
  %17 = call noalias ptr @malloc(i64 noundef %16) #12
  store ptr %17, ptr %3, align 8
  br label %18

18:                                               ; preds = %15, %8
  %19 = load ptr, ptr %3, align 8
  ret ptr %19
}

; Function Attrs: inlinehint nounwind uwtable
define internal ptr @pmix_tma_strdup(ptr noundef %0, ptr noundef %1) #3 {
  %3 = alloca ptr, align 8
  %4 = alloca ptr, align 8
  %5 = alloca ptr, align 8
  store ptr %0, ptr %4, align 8, !tbaa !23
  store ptr %1, ptr %5, align 8, !tbaa !33
  %6 = load ptr, ptr %4, align 8, !tbaa !23
  %7 = icmp ne ptr null, %6
  br i1 %7, label %8, label %15

8:                                                ; preds = %2
  %9 = load ptr, ptr %4, align 8, !tbaa !23
  %10 = getelementptr inbounds nuw %struct.pmix_tma, ptr %9, i32 0, i32 3
  %11 = load ptr, ptr %10, align 8, !tbaa !238
  %12 = load ptr, ptr %4, align 8, !tbaa !23
  %13 = load ptr, ptr %5, align 8, !tbaa !33
  %14 = call ptr %11(ptr noundef %12, ptr noundef %13)
  store ptr %14, ptr %3, align 8
  br label %18

15:                                               ; preds = %2
  %16 = load ptr, ptr %5, align 8, !tbaa !33
  %17 = call noalias ptr @strdup(ptr noundef %16) #11
  store ptr %17, ptr %3, align 8
  br label %18

18:                                               ; preds = %15, %8
  %19 = load ptr, ptr %3, align 8
  ret ptr %19
}

; Function Attrs: inlinehint nounwind uwtable
define internal ptr @pmix_bfrops_base_tma_proc_info_create(i64 noundef %0, ptr noundef %1) #3 {
  %3 = alloca ptr, align 8
  %4 = alloca i64, align 8
  %5 = alloca ptr, align 8
  %6 = alloca ptr, align 8
  %7 = alloca i64, align 8
  store i64 %0, ptr %4, align 8, !tbaa !25
  store ptr %1, ptr %5, align 8, !tbaa !23
  %8 = load i64, ptr %4, align 8, !tbaa !25
  %9 = icmp eq i64 0, %8
  br i1 %9, label %10, label %11

10:                                               ; preds = %2
  store ptr null, ptr %3, align 8
  br label %41

11:                                               ; preds = %2
  call void @llvm.lifetime.start.p0(i64 8, ptr %6) #11
  %12 = load ptr, ptr %5, align 8, !tbaa !23
  %13 = load i64, ptr %4, align 8, !tbaa !25
  %14 = mul i64 %13, 296
  %15 = call ptr @pmix_tma_malloc(ptr noundef %12, i64 noundef %14)
  store ptr %15, ptr %6, align 8, !tbaa !109
  %16 = load ptr, ptr %6, align 8, !tbaa !109
  %17 = icmp ne ptr null, %16
  %18 = xor i1 %17, true
  %19 = xor i1 %18, true
  %20 = zext i1 %19 to i32
  %21 = sext i32 %20 to i64
  %22 = call i64 @llvm.expect.i64(i64 %21, i64 1)
  %23 = icmp ne i64 %22, 0
  br i1 %23, label %24, label %39

24:                                               ; preds = %11
  call void @llvm.lifetime.start.p0(i64 8, ptr %7) #11
  store i64 0, ptr %7, align 8, !tbaa !25
  br label %25

25:                                               ; preds = %35, %24
  %26 = load i64, ptr %7, align 8, !tbaa !25
  %27 = load i64, ptr %4, align 8, !tbaa !25
  %28 = icmp ult i64 %26, %27
  br i1 %28, label %30, label %29

29:                                               ; preds = %25
  call void @llvm.lifetime.end.p0(i64 8, ptr %7) #11
  br label %38

30:                                               ; preds = %25
  %31 = load ptr, ptr %6, align 8, !tbaa !109
  %32 = load i64, ptr %7, align 8, !tbaa !25
  %33 = getelementptr inbounds nuw %struct.pmix_proc_info, ptr %31, i64 %32
  %34 = load ptr, ptr %5, align 8, !tbaa !23
  call void @pmix_bfrops_base_tma_proc_info_construct(ptr noundef %33, ptr noundef %34)
  br label %35

35:                                               ; preds = %30
  %36 = load i64, ptr %7, align 8, !tbaa !25
  %37 = add i64 %36, 1
  store i64 %37, ptr %7, align 8, !tbaa !25
  br label %25, !llvm.loop !247

38:                                               ; preds = %29
  br label %39

39:                                               ; preds = %38, %11
  %40 = load ptr, ptr %6, align 8, !tbaa !109
  store ptr %40, ptr %3, align 8
  call void @llvm.lifetime.end.p0(i64 8, ptr %6) #11
  br label %41

41:                                               ; preds = %39, %10
  %42 = load ptr, ptr %3, align 8
  ret ptr %42
}

; Function Attrs: inlinehint nounwind uwtable
define internal i32 @pmix_bfrops_base_tma_copy_pinfo(ptr noundef %0, ptr noundef %1, i16 noundef zeroext %2, ptr noundef %3) #3 {
  %5 = alloca i32, align 4
  %6 = alloca ptr, align 8
  %7 = alloca ptr, align 8
  %8 = alloca i16, align 2
  %9 = alloca ptr, align 8
  %10 = alloca ptr, align 8
  %11 = alloca i32, align 4
  store ptr %0, ptr %6, align 8, !tbaa !107
  store ptr %1, ptr %7, align 8, !tbaa !109
  store i16 %2, ptr %8, align 2, !tbaa !9
  store ptr %3, ptr %9, align 8, !tbaa !23
  call void @llvm.lifetime.start.p0(i64 8, ptr %10) #11
  %12 = load ptr, ptr %9, align 8, !tbaa !23
  %13 = call ptr @pmix_bfrops_base_tma_proc_info_create(i64 noundef 1, ptr noundef %12)
  store ptr %13, ptr %10, align 8, !tbaa !109
  %14 = load ptr, ptr %10, align 8, !tbaa !109
  %15 = icmp eq ptr null, %14
  %16 = xor i1 %15, true
  %17 = xor i1 %16, true
  %18 = zext i1 %17 to i32
  %19 = sext i32 %18 to i64
  %20 = call i64 @llvm.expect.i64(i64 %19, i64 0)
  %21 = icmp ne i64 %20, 0
  br i1 %21, label %22, label %23

22:                                               ; preds = %4
  store i32 -32, ptr %5, align 4
  store i32 1, ptr %11, align 4
  br label %68

23:                                               ; preds = %4
  %24 = load ptr, ptr %10, align 8, !tbaa !109
  %25 = getelementptr inbounds nuw %struct.pmix_proc_info, ptr %24, i32 0, i32 0
  %26 = load ptr, ptr %7, align 8, !tbaa !109
  %27 = getelementptr inbounds nuw %struct.pmix_proc_info, ptr %26, i32 0, i32 0
  call void @llvm.memcpy.p0.p0.i64(ptr align 8 %25, ptr align 8 %27, i64 260, i1 false)
  %28 = load ptr, ptr %7, align 8, !tbaa !109
  %29 = getelementptr inbounds nuw %struct.pmix_proc_info, ptr %28, i32 0, i32 1
  %30 = load ptr, ptr %29, align 8, !tbaa !111
  %31 = icmp ne ptr null, %30
  br i1 %31, label %32, label %40

32:                                               ; preds = %23
  %33 = load ptr, ptr %9, align 8, !tbaa !23
  %34 = load ptr, ptr %7, align 8, !tbaa !109
  %35 = getelementptr inbounds nuw %struct.pmix_proc_info, ptr %34, i32 0, i32 1
  %36 = load ptr, ptr %35, align 8, !tbaa !111
  %37 = call ptr @pmix_tma_strdup(ptr noundef %33, ptr noundef %36)
  %38 = load ptr, ptr %10, align 8, !tbaa !109
  %39 = getelementptr inbounds nuw %struct.pmix_proc_info, ptr %38, i32 0, i32 1
  store ptr %37, ptr %39, align 8, !tbaa !111
  br label %40

40:                                               ; preds = %32, %23
  %41 = load ptr, ptr %7, align 8, !tbaa !109
  %42 = getelementptr inbounds nuw %struct.pmix_proc_info, ptr %41, i32 0, i32 2
  %43 = load ptr, ptr %42, align 8, !tbaa !113
  %44 = icmp ne ptr null, %43
  br i1 %44, label %45, label %53

45:                                               ; preds = %40
  %46 = load ptr, ptr %9, align 8, !tbaa !23
  %47 = load ptr, ptr %7, align 8, !tbaa !109
  %48 = getelementptr inbounds nuw %struct.pmix_proc_info, ptr %47, i32 0, i32 2
  %49 = load ptr, ptr %48, align 8, !tbaa !113
  %50 = call ptr @pmix_tma_strdup(ptr noundef %46, ptr noundef %49)
  %51 = load ptr, ptr %10, align 8, !tbaa !109
  %52 = getelementptr inbounds nuw %struct.pmix_proc_info, ptr %51, i32 0, i32 2
  store ptr %50, ptr %52, align 8, !tbaa !113
  br label %53

53:                                               ; preds = %45, %40
  %54 = load ptr, ptr %10, align 8, !tbaa !109
  %55 = getelementptr inbounds nuw %struct.pmix_proc_info, ptr %54, i32 0, i32 3
  %56 = load ptr, ptr %7, align 8, !tbaa !109
  %57 = getelementptr inbounds nuw %struct.pmix_proc_info, ptr %56, i32 0, i32 3
  call void @llvm.memcpy.p0.p0.i64(ptr align 8 %55, ptr align 8 %57, i64 4, i1 false)
  %58 = load ptr, ptr %10, align 8, !tbaa !109
  %59 = getelementptr inbounds nuw %struct.pmix_proc_info, ptr %58, i32 0, i32 4
  %60 = load ptr, ptr %7, align 8, !tbaa !109
  %61 = getelementptr inbounds nuw %struct.pmix_proc_info, ptr %60, i32 0, i32 4
  call void @llvm.memcpy.p0.p0.i64(ptr align 4 %59, ptr align 4 %61, i64 4, i1 false)
  %62 = load ptr, ptr %10, align 8, !tbaa !109
  %63 = getelementptr inbounds nuw %struct.pmix_proc_info, ptr %62, i32 0, i32 5
  %64 = load ptr, ptr %7, align 8, !tbaa !109
  %65 = getelementptr inbounds nuw %struct.pmix_proc_info, ptr %64, i32 0, i32 5
  call void @llvm.memcpy.p0.p0.i64(ptr align 8 %63, ptr align 8 %65, i64 1, i1 false)
  %66 = load ptr, ptr %10, align 8, !tbaa !109
  %67 = load ptr, ptr %6, align 8, !tbaa !107
  store ptr %66, ptr %67, align 8, !tbaa !109
  store i32 0, ptr %5, align 4
  store i32 1, ptr %11, align 4
  br label %68

68:                                               ; preds = %53, %22
  call void @llvm.lifetime.end.p0(i64 8, ptr %10) #11
  %69 = load i32, ptr %5, align 4
  ret i32 %69
}

; Function Attrs: nounwind uwtable
define i32 @pmix_bfrops_base_copy_pinfo(ptr noundef %0, ptr noundef %1, i16 noundef zeroext %2) #0 {
  %4 = alloca ptr, align 8
  %5 = alloca ptr, align 8
  %6 = alloca i16, align 2
  store ptr %0, ptr %4, align 8, !tbaa !107
  store ptr %1, ptr %5, align 8, !tbaa !109
  store i16 %2, ptr %6, align 2, !tbaa !9
  %7 = load ptr, ptr %4, align 8, !tbaa !107
  %8 = load ptr, ptr %5, align 8, !tbaa !109
  %9 = load i16, ptr %6, align 2, !tbaa !9
  %10 = call i32 @pmix_bfrops_base_tma_copy_pinfo(ptr noundef %7, ptr noundef %8, i16 noundef zeroext %9, ptr noundef null)
  ret i32 %10
}