; Function Attrs: mustprogress nofree nounwind willreturn uwtable
define range(i32 -32, 1) i32 @pmix_bfrops_base_copy_pinfo(ptr noundef writeonly captures(none) %0, ptr noundef readonly captures(none) %1, i16 noundef zeroext %2) local_unnamed_addr #4 {
  %calloc.i.i = tail call dereferenceable_or_null(296) ptr @calloc(i64 1, i64 296)
  %4 = icmp eq ptr %calloc.i.i, null
  br i1 %4, label %pmix_bfrops_base_tma_copy_pinfo.exit, label %5, !prof !43

5:                                                ; preds = %3
  tail call void @llvm.memcpy.p0.p0.i64(ptr noundef nonnull align 8 dereferenceable(260) %calloc.i.i, ptr noundef nonnull readonly align 8 dereferenceable(260) %1, i64 260, i1 false)
  %6 = getelementptr inbounds nuw i8, ptr %1, i64 264
  %7 = load ptr, ptr %6, align 8, !tbaa !84
  %.not.i = icmp eq ptr %7, null
  br i1 %.not.i, label %11, label %8

8:                                                ; preds = %5
  %9 = tail call noalias ptr @strdup(ptr noundef nonnull readonly %7) #23
  %10 = getelementptr inbounds nuw i8, ptr %calloc.i.i, i64 264
  store ptr %9, ptr %10, align 8, !tbaa !84
  br label %11

11:                                               ; preds = %8, %5
  %12 = getelementptr inbounds nuw i8, ptr %1, i64 272
  %13 = load ptr, ptr %12, align 8, !tbaa !86
  %.not23.i = icmp eq ptr %13, null
  br i1 %.not23.i, label %17, label %14

14:                                               ; preds = %11
  %15 = tail call noalias ptr @strdup(ptr noundef nonnull readonly %13) #23
  %16 = getelementptr inbounds nuw i8, ptr %calloc.i.i, i64 272
  store ptr %15, ptr %16, align 8, !tbaa !86
  br label %17

17:                                               ; preds = %14, %11
  %18 = getelementptr inbounds nuw i8, ptr %calloc.i.i, i64 280
  %19 = getelementptr inbounds nuw i8, ptr %1, i64 280
  %20 = load i32, ptr %19, align 8
  store i32 %20, ptr %18, align 8
  %21 = getelementptr inbounds nuw i8, ptr %calloc.i.i, i64 284
  %22 = getelementptr inbounds nuw i8, ptr %1, i64 284
  %23 = load i32, ptr %22, align 4
  store i32 %23, ptr %21, align 4
  %24 = getelementptr inbounds nuw i8, ptr %calloc.i.i, i64 288
  %25 = getelementptr inbounds nuw i8, ptr %1, i64 288
  %26 = load i8, ptr %25, align 8
  store i8 %26, ptr %24, align 8
  store ptr %calloc.i.i, ptr %0, align 8, !tbaa !87
  br label %pmix_bfrops_base_tma_copy_pinfo.exit

pmix_bfrops_base_tma_copy_pinfo.exit:             ; preds = %3, %17
  %.0.i = phi i32 [ 0, %17 ], [ -32, %3 ]
  ret i32 %.0.i
}